target datalayout = "e-m:e-p270:32:32-p271:32:32-p272:64:64-i64:64-i128:128-f80:128-n8:16:32:64-S128"
target triple = "x86_64-pc-linux-gnu"

@.str.6 = private unnamed_addr constant [6 x i8] c"Drain\00", align 1

; Function Attrs: nounwind uwtable
define zeroext i8 @Java_sun_nio_ch_IOUtil_drain(ptr noundef %0, ptr noundef %1, i32 noundef %2) #0 {
  %4 = alloca ptr, align 8
  %5 = alloca ptr, align 8
  %6 = alloca i32, align 4
  %7 = alloca [16 x i8], align 16
  %8 = alloca i32, align 4
  %9 = alloca i32, align 4
  store ptr %0, ptr %4, align 8
  store ptr %1, ptr %5, align 8
  store i32 %2, ptr %6, align 4
  store i32 0, ptr %8, align 4
  br label %10

10:                                               ; preds = %33, %3
  %11 = load i32, ptr %6, align 4
  %12 = getelementptr inbounds [16 x i8], ptr %7, i64 0, i64 0
  %13 = call i64 @read(i32 noundef %11, ptr noundef %12, i64 noundef 16)
  %14 = trunc i64 %13 to i32
  store i32 %14, ptr %9, align 4
  %15 = load i32, ptr %9, align 4
  %16 = load i32, ptr %8, align 4
  %17 = add nsw i32 %16, %15
  store i32 %17, ptr %8, align 4
  %18 = load i32, ptr %9, align 4
  %19 = icmp slt i32 %18, 0
  br i1 %19, label %20, label %30

20:                                               ; preds = %10
  %21 = call ptr @__errno_location() #5
  %22 = load i32, ptr %21, align 4
  %23 = icmp ne i32 %22, 11
  br i1 %23, label %24, label %30

24:                                               ; preds = %20
  %25 = call ptr @__errno_location() #5
  %26 = load i32, ptr %25, align 4
  %27 = icmp ne i32 %26, 11
  br i1 %27, label %28, label %30

28:                                               ; preds = %24
  %29 = load ptr, ptr %4, align 8
  call void @JNU_ThrowIOExceptionWithLastError(ptr noundef %29, ptr noundef @.str.6)
  br label %30

30:                                               ; preds = %28, %24, %20, %10
  %31 = load i32, ptr %9, align 4
  %32 = icmp eq i32 %31, 16
  br i1 %32, label %33, label %34

33:                                               ; preds = %30
  br label %10

34:                                               ; preds = %30
  %35 = load i32, ptr %8, align 4
  %36 = icmp sgt i32 %35, 0
  %37 = select i1 %36, i32 1, i32 0
  %38 = trunc i32 %37 to i8
  ret i8 %38
}