; Function Attrs: nounwind uwtable
define zeroext range(i8 0, 2) i8 @Java_sun_nio_ch_IOUtil_drain(ptr noundef %0, ptr nocapture noundef readnone %1, i32 noundef %2) local_unnamed_addr #0 {
  %4 = alloca [16 x i8], align 16
  br label %5

5:                                                ; preds = %14, %3
  %.0 = phi i32 [ 0, %3 ], [ %8, %14 ]
  %6 = call i64 @read(i32 noundef %2, ptr noundef nonnull %4, i64 noundef 16) #7
  %7 = trunc i64 %6 to i32
  %8 = add nsw i32 %.0, %7
  %9 = icmp slt i32 %7, 0
  br i1 %9, label %10, label %14

10:                                               ; preds = %5
  %11 = tail call ptr @__errno_location() #8
  %12 = load i32, ptr %11, align 4
  %.not = icmp eq i32 %12, 11
  br i1 %.not, label %.thread, label %13

13:                                               ; preds = %10
  tail call void @JNU_ThrowIOExceptionWithLastError(ptr noundef %0, ptr noundef nonnull @.str.6) #7
  br label %.thread

14:                                               ; preds = %5
  %15 = icmp eq i32 %7, 16
  br i1 %15, label %5, label %.thread

.thread:                                          ; preds = %14, %10, %13
  %16 = icmp sgt i32 %8, 0
  %17 = zext i1 %16 to i8
  ret i8 %17
}